target datalayout = "e-m:e-p270:32:32-p271:32:32-p272:64:64-i64:64-i128:128-f80:128-n8:16:32:64-S128"
target triple = "x86_64-pc-linux-gnu"

%struct._object = type { %union.anon, ptr }
%union.anon = type { i64 }
%struct.anon = type { i32, i32 }
%struct.tagCDataObject = type { %struct._object, ptr, i32, ptr, i64, i64, i64, ptr, %union.value }
%union.value = type { x86_fp80 }

@_Py_NoneStruct = external global %struct._object, align 8

; Function Attrs: alwaysinline nounwind uwtable
define internal void @Py_INCREF(ptr noundef %0) #4 {
  %2 = alloca ptr, align 8
  %3 = alloca i32, align 4
  %4 = alloca i32, align 4
  store ptr %0, ptr %2, align 8, !tbaa !7
  call void @llvm.lifetime.start.p0(i64 4, ptr %3) #9
  %5 = load ptr, ptr %2, align 8, !tbaa !7
  %6 = getelementptr inbounds nuw %struct._object, ptr %5, i32 0, i32 0
  %7 = getelementptr inbounds nuw %struct.anon, ptr %6, i32 0, i32 0
  %8 = load i32, ptr %7, align 8, !tbaa !20
  store i32 %8, ptr %3, align 4, !tbaa !16
  %9 = load i32, ptr %3, align 4, !tbaa !16
  %10 = icmp slt i32 %9, 0
  br i1 %10, label %11, label %12

11:                                               ; preds = %1
  store i32 1, ptr %4, align 4
  br label %18

12:                                               ; preds = %1
  %13 = load i32, ptr %3, align 4, !tbaa !16
  %14 = add i32 %13, 1
  %15 = load ptr, ptr %2, align 8, !tbaa !7
  %16 = getelementptr inbounds nuw %struct._object, ptr %15, i32 0, i32 0
  %17 = getelementptr inbounds nuw %struct.anon, ptr %16, i32 0, i32 0
  store i32 %14, ptr %17, align 8, !tbaa !20
  store i32 0, ptr %4, align 4
  br label %18

18:                                               ; preds = %12, %11
  call void @llvm.lifetime.end.p0(i64 4, ptr %3) #9
  %19 = load i32, ptr %4, align 4
  switch i32 %19, label %21 [
    i32 0, label %20
    i32 1, label %20
  ]

20:                                               ; preds = %18, %18
  ret void

21:                                               ; preds = %18
  unreachable
}

; Function Attrs: inlinehint nounwind uwtable
define internal ptr @_Py_NewRef(ptr noundef %0) #2 {
  %2 = alloca ptr, align 8
  store ptr %0, ptr %2, align 8, !tbaa !7
  %3 = load ptr, ptr %2, align 8, !tbaa !7
  call void @Py_INCREF(ptr noundef %3)
  %4 = load ptr, ptr %2, align 8, !tbaa !7
  ret ptr %4
}

; Function Attrs: nounwind uwtable
define internal ptr @PyCData_GetContainer(ptr noundef %0) #0 {
  %2 = alloca ptr, align 8
  %3 = alloca ptr, align 8
  store ptr %0, ptr %3, align 8, !tbaa !39
  br label %4

4:                                                ; preds = %9, %1
  %5 = load ptr, ptr %3, align 8, !tbaa !39
  %6 = getelementptr inbounds nuw %struct.tagCDataObject, ptr %5, i32 0, i32 3
  %7 = load ptr, ptr %6, align 16, !tbaa !48
  %8 = icmp ne ptr %7, null
  br i1 %8, label %9, label %13

9:                                                ; preds = %4
  %10 = load ptr, ptr %3, align 8, !tbaa !39
  %11 = getelementptr inbounds nuw %struct.tagCDataObject, ptr %10, i32 0, i32 3
  %12 = load ptr, ptr %11, align 16, !tbaa !48
  store ptr %12, ptr %3, align 8, !tbaa !39
  br label %4, !llvm.loop !116

13:                                               ; preds = %4
  %14 = load ptr, ptr %3, align 8, !tbaa !39
  %15 = getelementptr inbounds nuw %struct.tagCDataObject, ptr %14, i32 0, i32 7
  %16 = load ptr, ptr %15, align 16, !tbaa !61
  %17 = icmp eq ptr %16, null
  br i1 %17, label %18, label %38

18:                                               ; preds = %13
  %19 = load ptr, ptr %3, align 8, !tbaa !39
  %20 = getelementptr inbounds nuw %struct.tagCDataObject, ptr %19, i32 0, i32 5
  %21 = load i64, ptr %20, align 16, !tbaa !42
  %22 = icmp ne i64 %21, 0
  br i1 %22, label %23, label %33

23:                                               ; preds = %18
  %24 = call ptr @PyDict_New()
  %25 = load ptr, ptr %3, align 8, !tbaa !39
  %26 = getelementptr inbounds nuw %struct.tagCDataObject, ptr %25, i32 0, i32 7
  store ptr %24, ptr %26, align 16, !tbaa !61
  %27 = load ptr, ptr %3, align 8, !tbaa !39
  %28 = getelementptr inbounds nuw %struct.tagCDataObject, ptr %27, i32 0, i32 7
  %29 = load ptr, ptr %28, align 16, !tbaa !61
  %30 = icmp eq ptr %29, null
  br i1 %30, label %31, label %32

31:                                               ; preds = %23
  store ptr null, ptr %2, align 8
  br label %40

32:                                               ; preds = %23
  br label %37

33:                                               ; preds = %18
  %34 = call ptr @_Py_NewRef(ptr noundef @_Py_NoneStruct)
  %35 = load ptr, ptr %3, align 8, !tbaa !39
  %36 = getelementptr inbounds nuw %struct.tagCDataObject, ptr %35, i32 0, i32 7
  store ptr %34, ptr %36, align 16, !tbaa !61
  br label %37

37:                                               ; preds = %33, %32
  br label %38

38:                                               ; preds = %37, %13
  %39 = load ptr, ptr %3, align 8, !tbaa !39
  store ptr %39, ptr %2, align 8
  br label %40

40:                                               ; preds = %38, %31
  %41 = load ptr, ptr %2, align 8
  ret ptr %41
}

; Function Attrs: nounwind uwtable
define internal ptr @GetKeepedObjects(ptr noundef %0) #0 {
  %2 = alloca ptr, align 8
  %3 = alloca ptr, align 8
  %4 = alloca ptr, align 8
  %5 = alloca i32, align 4
  store ptr %0, ptr %3, align 8, !tbaa !39
  call void @llvm.lifetime.start.p0(i64 8, ptr %4) #9
  %6 = load ptr, ptr %3, align 8, !tbaa !39
  %7 = call ptr @PyCData_GetContainer(ptr noundef %6)
  store ptr %7, ptr %4, align 8, !tbaa !39
  %8 = load ptr, ptr %4, align 8, !tbaa !39
  %9 = icmp eq ptr %8, null
  br i1 %9, label %10, label %11

10:                                               ; preds = %1
  store ptr null, ptr %2, align 8
  store i32 1, ptr %5, align 4
  br label %15

11:                                               ; preds = %1
  %12 = load ptr, ptr %4, align 8, !tbaa !39
  %13 = getelementptr inbounds nuw %struct.tagCDataObject, ptr %12, i32 0, i32 7
  %14 = load ptr, ptr %13, align 16, !tbaa !61
  store ptr %14, ptr %2, align 8
  store i32 1, ptr %5, align 4
  br label %15

15:                                               ; preds = %11, %10
  call void @llvm.lifetime.end.p0(i64 8, ptr %4) #9
  %16 = load ptr, ptr %2, align 8
  ret ptr %16
}