; Function Attrs: nounwind uwtable
define internal fastcc ptr @GetKeepedObjects(ptr noundef captures(none) %0) unnamed_addr #0 {
  br label %2

2:                                                ; preds = %2, %1
  %.0.i = phi ptr [ %0, %1 ], [ %4, %2 ]
  %3 = getelementptr inbounds nuw i8, ptr %.0.i, i64 32
  %4 = load ptr, ptr %3, align 16, !tbaa !44
  %.not.i = icmp eq ptr %4, null
  br i1 %.not.i, label %5, label %2, !llvm.loop !55

5:                                                ; preds = %2
  %6 = getelementptr inbounds nuw i8, ptr %.0.i, i64 64
  %7 = load ptr, ptr %6, align 16, !tbaa !57
  %8 = icmp eq ptr %7, null
  br i1 %8, label %9, label %PyCData_GetContainer.exit.thread

9:                                                ; preds = %5
  %10 = getelementptr inbounds nuw i8, ptr %.0.i, i64 48
  %11 = load i64, ptr %10, align 16, !tbaa !37
  %.not11.i = icmp eq i64 %11, 0
  br i1 %.not11.i, label %14, label %12

12:                                               ; preds = %9
  %13 = tail call ptr @PyDict_New() #17
  br label %PyCData_GetContainer.exit.thread.sink.split

14:                                               ; preds = %9
  %15 = load i32, ptr @_Py_NoneStruct, align 8, !tbaa !23
  %16 = icmp slt i32 %15, 0
  br i1 %16, label %PyCData_GetContainer.exit.thread.sink.split, label %17

17:                                               ; preds = %14
  %18 = add nuw i32 %15, 1
  store i32 %18, ptr @_Py_NoneStruct, align 8, !tbaa !23
  br label %PyCData_GetContainer.exit.thread.sink.split

PyCData_GetContainer.exit.thread.sink.split:      ; preds = %14, %17, %12
  %.sink = phi ptr [ %13, %12 ], [ @_Py_NoneStruct, %17 ], [ @_Py_NoneStruct, %14 ]
  store ptr %.sink, ptr %6, align 16, !tbaa !57
  br label %PyCData_GetContainer.exit.thread

PyCData_GetContainer.exit.thread:                 ; preds = %PyCData_GetContainer.exit.thread.sink.split, %5
  %.0 = phi ptr [ %7, %5 ], [ %.sink, %PyCData_GetContainer.exit.thread.sink.split ]
  ret ptr %.0
}